; Function Attrs: mustprogress uwtable
define void @_ZN27MLRenderingPointsSizeAction18createSisterActionERP17MLRenderingActionP7QObject(ptr noundef nonnull align 8 dereferenceable(20) %0, ptr nocapture noundef nonnull writeonly align 8 dereferenceable(8) %1, ptr noundef %2) unnamed_addr #9 align 2 personality ptr @__gxx_personality_v0 {
  %4 = tail call noalias noundef nonnull dereferenceable(24) ptr @_Znwm(i64 noundef 24) #24
  invoke void @_ZN27MLRenderingPointsSizeActionC1EPS_P7QObject(ptr noundef nonnull align 8 dereferenceable(20) %4, ptr noundef nonnull %0, ptr noundef %2)
          to label %5 unwind label %6

5:                                                ; preds = %3
  store ptr %4, ptr %1, align 8
  ret void

6:                                                ; preds = %3
  %7 = landingpad { ptr, i32 }
          cleanup
  tail call void @_ZdlPv(ptr noundef nonnull %4) #20
  resume { ptr, i32 } %7
}